Certificate:
    Data:
        Version: 3 (0x2)
        Serial Number: 1 (0x1)
        Signature Algorithm: sha1WithRSAEncryption
        Issuer: DC=org, DC=simple, O=Simple Inc, OU=Simple Signing CA, CN=Simple Signing CA
        Validity
            Not Before: Dec 11 06:38:27 2023 GMT
            Not After : Dec 10 06:38:27 2025 GMT
        Subject: DC=org, DC=simple, O=Simple Inc, CN=Fred Flintstone
        Subject Public Key Info:
            Public Key Algorithm: rsaEncryption
                Public-Key: (2048 bit)
                Modulus:
                    00:b0:fc:ee:f0:d4:50:40:c7:fc:ef:5b:cc:04:88:
                    a6:5c:97:5c:7c:ca:69:cc:2c:2a:c6:a6:9f:40:45:
                    8b:d4:63:d1:e3:7e:58:7a:b8:6b:1c:1c:05:d1:5e:
                    f2:73:89:00:7e:d1:90:7b:49:e8:d0:9a:be:ce:5b:
                    06:28:62:8e:d7:d5:cb:72:fd:98:d1:7f:3e:28:dd:
                    3a:54:e3:a4:b9:b9:62:3a:96:1e:c8:23:3e:fe:ed:
                    34:e9:5e:0b:ec:c1:8e:fb:71:ad:a2:18:85:a6:df:
                    3e:12:28:5a:b8:ad:00:e9:57:72:43:84:66:d4:36:
                    94:e1:aa:82:77:a0:6c:db:e2:0c:24:76:8c:57:fd:
                    94:e3:3b:6f:f7:fa:cc:90:ad:9c:c8:af:86:ef:32:
                    0e:ee:d6:36:88:ea:a0:56:57:a4:e5:bc:4a:62:d6:
                    51:dc:91:cd:71:89:eb:e1:b8:c3:f5:22:1c:fa:63:
                    d9:bc:d6:3c:7f:7b:38:f6:36:2d:27:ca:2a:bf:3a:
                    9d:41:a8:a5:65:67:3a:cf:fc:11:db:4b:db:20:fd:
                    bd:4b:41:d9:ce:08:5d:eb:fb:6c:09:eb:45:93:4e:
                    18:aa:37:69:5e:a8:6f:74:20:98:25:c0:cf:ae:df:
                    f3:3a:5c:1b:f7:b5:d4:e6:9d:83:b6:24:19:1f:66:
                    f8:cf
                Exponent: 65537 (0x10001)
        X509v3 extensions:
            X509v3 Key Usage: critical
                Digital Signature, Key Encipherment
            X509v3 Basic Constraints: 
                CA:FALSE
            X509v3 Extended Key Usage: 
                E-mail Protection, TLS Web Client Authentication
            X509v3 Subject Key Identifier: 
                B3:80:A1:83:AF:36:10:ED:16:79:B2:A6:3A:27:86:CA:AE:15:13:84
            X509v3 Authority Key Identifier: 
                1B:97:33:CE:89:A2:F8:3B:DA:31:AD:0A:CC:AA:8E:FC:30:67:96:66
            X509v3 Subject Alternative Name: 
                email:fred@simple.org
    Signature Algorithm: sha1WithRSAEncryption
    Signature Value:
        22:59:0d:1b:5e:aa:a4:df:8c:1b:e0:8e:f3:f0:62:ba:5b:e8:
        a9:d3:32:37:89:5a:10:ea:26:87:7e:26:f3:6d:dd:bd:d5:0c:
        d2:23:44:38:1e:ae:41:2f:b8:43:bc:59:95:b8:a5:5f:47:d7:
        23:82:07:b5:df:e2:0e:41:05:82:16:60:e9:e2:d2:b8:4d:5a:
        7c:f4:f6:d1:9b:60:11:2c:f9:24:a0:40:e3:49:99:70:de:0e:
        c8:97:82:d5:3d:10:62:bb:ae:25:fa:27:81:7e:90:18:4e:8d:
        d9:86:bd:f0:a6:01:24:5d:c0:ca:89:a8:cb:19:07:13:f0:ac:
        92:cf:93:cd:65:3c:15:fc:40:aa:4e:19:80:31:3a:d8:20:8b:
        3d:e0:d3:5a:45:be:59:30:69:2f:b3:e3:99:b8:fc:f9:0f:5a:
        d8:18:70:05:04:4c:74:57:80:9d:31:1d:d3:cd:ab:8b:12:9a:
        b3:f1:35:b5:da:c5:81:c0:3d:4e:3d:d6:89:d2:3b:e8:9b:fa:
        66:47:ea:55:a9:42:cd:2c:df:6c:44:fa:8d:32:e9:12:33:b6:
        00:ca:5a:0a:f3:1f:b7:3e:c8:83:ef:1d:c0:05:27:ff:7d:77:
        2e:6e:f1:c7:de:45:ea:e4:84:3d:8e:19:93:b1:78:c2:19:ae:
        3f:4d:45:36
-----BEGIN CERTIFICATE-----
MIID6zCCAtOgAwIBAgIBATANBgkqhkiG9w0BAQUFADB6MRMwEQYKCZImiZPyLGQB
GRYDb3JnMRYwFAYKCZImiZPyLGQBGRYGc2ltcGxlMRMwEQYDVQQKDApTaW1wbGUg
SW5jMRowGAYDVQQLDBFTaW1wbGUgU2lnbmluZyBDQTEaMBgGA1UEAwwRU2ltcGxl
IFNpZ25pbmcgQ0EwHhcNMjMxMjExMDYzODI3WhcNMjUxMjEwMDYzODI3WjBcMRMw
EQYKCZImiZPyLGQBGRYDb3JnMRYwFAYKCZImiZPyLGQBGRYGc2ltcGxlMRMwEQYD
VQQKDApTaW1wbGUgSW5jMRgwFgYDVQQDDA9GcmVkIEZsaW50c3RvbmUwggEiMA0G
CSqGSIb3DQEBAQUAA4IBDwAwggEKAoIBAQCw/O7w1FBAx/zvW8wEiKZcl1x8ymnM
LCrGpp9ARYvUY9Hjflh6uGscHAXRXvJziQB+0ZB7SejQmr7OWwYoYo7X1cty/ZjR
fz4o3TpU46S5uWI6lh7IIz7+7TTpXgvswY77ca2iGIWm3z4SKFq4rQDpV3JDhGbU
NpThqoJ3oGzb4gwkdoxX/ZTjO2/3+syQrZzIr4bvMg7u1jaI6qBWV6TlvEpi1lHc
kc1xievhuMP1Ihz6Y9m81jx/ezj2Ni0nyiq/Op1BqKVlZzrP/BHbS9sg/b1LQdnO
CF3r+2wJ60WTThiqN2leqG90IJglwM+u3/M6XBv3tdTmnYO2JBkfZvjPAgMBAAGj
gZkwgZYwDgYDVR0PAQH/BAQDAgWgMAkGA1UdEwQCMAAwHQYDVR0lBBYwFAYIKwYB
BQUHAwQGCCsGAQUFBwMCMB0GA1UdDgQWBBSzgKGDrzYQ7RZ5sqY6J4bKrhUThDAf
BgNVHSMEGDAWgBQblzPOiaL4O9oxrQrMqo78MGeWZjAaBgNVHREEEzARgQ9mcmVk
QHNpbXBsZS5vcmcwDQYJKoZIhvcNAQEFBQADggEBACJZDRteqqTfjBvgjvPwYrpb
6KnTMjeJWhDqJod+JvNt3b3VDNIjRDgerkEvuEO8WZW4pV9H1yOCB7Xf4g5BBYIW
YOni0rhNWnz09tGbYBEs+SSgQONJmXDeDsiXgtU9EGK7riX6J4F+kBhOjdmGvfCm
ASRdwMqJqMsZBxPwrJLPk81lPBX8QKpOGYAxOtggiz3g01pFvlkwaS+z45m4/PkP
WtgYcAUETHRXgJ0xHdPNq4sSmrPxNbXaxYHAPU491onSO+ib+mZH6lWpQs0s32xE
+o0y6RIztgDKWgrzH7c+yIPvHcAFJ/99dy5u8cfeRerkhD2OGZOxeMIZrj9NRTY=
-----END CERTIFICATE-----
