Certificate:
    Data:
        Version: 3 (0x2)
        Serial Number: 2 (0x2)
        Signature Algorithm: sha1WithRSAEncryption
        Issuer: DC=org, DC=simple, O=Simple Inc, OU=Simple Signing CA, CN=Simple Signing CA
        Validity
            Not Before: Dec 11 06:39:54 2023 GMT
            Not After : Dec 10 06:39:54 2025 GMT
        Subject: DC=org, DC=simple, O=Simple Inc, CN=www.simple.org
        Subject Public Key Info:
            Public Key Algorithm: rsaEncryption
                Public-Key: (2048 bit)
                Modulus:
                    00:b8:6a:50:23:5a:39:e8:a3:6b:fc:42:e9:0c:4b:
                    a3:63:d0:87:5e:64:cd:27:76:da:82:38:1c:31:df:
                    cf:a1:71:9d:7b:a5:ad:75:b1:92:36:f1:c1:ac:52:
                    5a:34:0e:af:57:61:fc:0c:fe:50:e0:66:1e:52:28:
                    a2:a4:da:29:76:4c:ce:6a:dd:cb:84:1d:13:d1:67:
                    d2:41:88:7e:89:7f:41:9f:d6:45:c1:f8:d5:7e:7e:
                    d8:e7:00:5f:d9:2a:49:67:11:42:da:a1:06:01:33:
                    3d:9e:8c:b2:36:28:74:cf:82:ba:47:cc:e7:02:4b:
                    97:ed:05:0c:26:4a:17:d1:f4:fb:0a:65:9a:53:2a:
                    5c:2c:34:24:3d:d7:ef:48:3f:e8:b3:42:9f:55:78:
                    b3:29:ea:1b:ef:cb:92:8a:e6:11:b1:b8:81:0d:82:
                    51:40:38:87:02:dc:97:b8:14:e6:bb:1b:b5:01:6b:
                    5e:52:17:76:6d:40:b5:22:ce:92:f4:36:59:b7:4b:
                    ca:d3:39:f9:2f:98:0a:31:d6:f8:46:88:2e:fc:1f:
                    86:d8:b1:08:88:c4:d1:0c:49:9b:44:52:32:87:06:
                    f2:40:12:8b:43:5e:e8:20:2f:7c:b0:25:57:3f:5d:
                    f9:ea:39:6f:f1:04:0a:05:7c:ac:b8:5a:fe:0e:c5:
                    ad:11
                Exponent: 65537 (0x10001)
        X509v3 extensions:
            X509v3 Key Usage: critical
                Digital Signature, Key Encipherment
            X509v3 Basic Constraints: 
                CA:FALSE
            X509v3 Extended Key Usage: 
                TLS Web Server Authentication, TLS Web Client Authentication
            X509v3 Subject Key Identifier: 
                42:29:58:1D:28:70:2A:56:2A:A7:96:CC:5E:8E:A1:69:EE:B4:C2:E9
            X509v3 Authority Key Identifier: 
                1B:97:33:CE:89:A2:F8:3B:DA:31:AD:0A:CC:AA:8E:FC:30:67:96:66
            X509v3 Subject Alternative Name: 
                DNS:www.simple.org
    Signature Algorithm: sha1WithRSAEncryption
    Signature Value:
        77:b4:04:29:28:72:4f:3f:be:38:7e:bd:14:25:d5:8c:70:f0:
        bd:21:ab:e8:5d:37:8c:b6:d3:81:0c:10:31:e6:0e:6e:3a:95:
        f5:ed:48:82:17:29:95:d1:00:92:53:9c:77:4e:fd:3f:18:f7:
        77:bd:3a:9e:53:52:e2:da:76:cd:a6:99:a3:8d:2b:4a:d7:21:
        4d:5c:cb:7d:1d:69:12:9e:91:23:2b:9e:86:76:6b:57:30:d0:
        36:42:5d:e3:cb:f1:67:47:9b:85:1f:e9:0f:f9:d9:47:7f:8e:
        45:e1:51:82:80:22:b6:5c:0d:41:45:8b:78:87:44:3b:9c:f6:
        dc:5a:ea:8b:97:b8:d4:e3:a3:ee:3a:ee:97:85:8a:23:0c:c8:
        1f:36:d4:4e:b6:84:64:0b:ef:e2:4f:1c:1c:ab:a0:37:ca:34:
        45:b4:b1:e4:fc:4f:7a:de:5c:ab:68:33:a6:ab:2d:d0:15:ea:
        3b:5c:b9:be:a0:62:b4:ab:10:28:d8:43:3d:1e:36:67:3d:27:
        4a:43:44:39:2c:71:3c:3d:c6:6b:9f:45:f9:32:65:bd:22:0b:
        af:58:90:68:fc:fc:7e:6d:84:bd:e0:c1:b1:52:77:c8:82:8a:
        8e:73:a6:5c:80:a9:5f:89:fe:a7:aa:2c:43:20:a0:4c:63:7e:
        15:df:22:12
-----BEGIN CERTIFICATE-----
MIID6TCCAtGgAwIBAgIBAjANBgkqhkiG9w0BAQUFADB6MRMwEQYKCZImiZPyLGQB
GRYDb3JnMRYwFAYKCZImiZPyLGQBGRYGc2ltcGxlMRMwEQYDVQQKDApTaW1wbGUg
SW5jMRowGAYDVQQLDBFTaW1wbGUgU2lnbmluZyBDQTEaMBgGA1UEAwwRU2ltcGxl
IFNpZ25pbmcgQ0EwHhcNMjMxMjExMDYzOTU0WhcNMjUxMjEwMDYzOTU0WjBbMRMw
EQYKCZImiZPyLGQBGRYDb3JnMRYwFAYKCZImiZPyLGQBGRYGc2ltcGxlMRMwEQYD
VQQKDApTaW1wbGUgSW5jMRcwFQYDVQQDDA53d3cuc2ltcGxlLm9yZzCCASIwDQYJ
KoZIhvcNAQEBBQADggEPADCCAQoCggEBALhqUCNaOeija/xC6QxLo2PQh15kzSd2
2oI4HDHfz6FxnXulrXWxkjbxwaxSWjQOr1dh/Az+UOBmHlIooqTaKXZMzmrdy4Qd
E9Fn0kGIfol/QZ/WRcH41X5+2OcAX9kqSWcRQtqhBgEzPZ6MsjYodM+CukfM5wJL
l+0FDCZKF9H0+wplmlMqXCw0JD3X70g/6LNCn1V4synqG+/LkormEbG4gQ2CUUA4
hwLcl7gU5rsbtQFrXlIXdm1AtSLOkvQ2WbdLytM5+S+YCjHW+EaILvwfhtixCIjE
0QxJm0RSMocG8kASi0Ne6CAvfLAlVz9d+eo5b/EECgV8rLha/g7FrRECAwEAAaOB
mDCBlTAOBgNVHQ8BAf8EBAMCBaAwCQYDVR0TBAIwADAdBgNVHSUEFjAUBggrBgEF
BQcDAQYIKwYBBQUHAwIwHQYDVR0OBBYEFEIpWB0ocCpWKqeWzF6OoWnutMLpMB8G
A1UdIwQYMBaAFBuXM86Jovg72jGtCsyqjvwwZ5ZmMBkGA1UdEQQSMBCCDnd3dy5z
aW1wbGUub3JnMA0GCSqGSIb3DQEBBQUAA4IBAQB3tAQpKHJPP744fr0UJdWMcPC9
IavoXTeMttOBDBAx5g5uOpX17UiCFymV0QCSU5x3Tv0/GPd3vTqeU1Li2nbNppmj
jStK1yFNXMt9HWkSnpEjK56GdmtXMNA2Ql3jy/FnR5uFH+kP+dlHf45F4VGCgCK2
XA1BRYt4h0Q7nPbcWuqLl7jU46PuOu6XhYojDMgfNtROtoRkC+/iTxwcq6A3yjRF
tLHk/E963lyraDOmqy3QFeo7XLm+oGK0qxAo2EM9HjZnPSdKQ0Q5LHE8PcZrn0X5
MmW9IguvWJBo/Px+bYS94MGxUnfIgoqOc6ZcgKlfif6nqixDIKBMY34V3yIS
-----END CERTIFICATE-----
