Certificate:
    Data:
        Version: 3 (0x2)
        Serial Number: 2 (0x2)
        Signature Algorithm: sha1WithRSAEncryption
        Issuer: DC=org, DC=simple, O=Simple Inc, OU=Simple Root CA, CN=Simple Root CA
        Validity
            Not Before: Dec 11 06:31:23 2023 GMT
            Not After : Dec 10 06:31:23 2033 GMT
        Subject: DC=org, DC=simple, O=Simple Inc, OU=Simple Signing CA, CN=Simple Signing CA
        Subject Public Key Info:
            Public Key Algorithm: rsaEncryption
                Public-Key: (2048 bit)
                Modulus:
                    00:bb:a1:d9:9b:55:cf:ba:3a:ec:6e:9e:1c:19:87:
                    97:e1:bb:51:5f:b7:dd:1f:b8:10:27:67:96:86:7e:
                    10:84:51:fe:f8:dc:10:54:91:47:a6:33:07:ca:f2:
                    5f:65:17:a0:01:3b:24:ef:33:b1:d0:0b:0d:65:96:
                    9d:05:9e:a8:f5:ef:69:4c:cd:50:fd:7e:41:22:d7:
                    c0:11:e9:59:d7:a0:ee:bb:98:19:fc:57:b0:b2:25:
                    c8:a0:5f:94:f5:35:f0:55:39:f2:17:ad:03:94:1d:
                    7b:39:e7:e0:be:e4:2d:6c:0f:cf:a9:a1:8e:52:8b:
                    fc:c1:02:a0:92:5a:bf:9f:9c:11:a5:60:79:69:0b:
                    d1:a0:cc:85:53:d3:ec:95:f6:58:53:6d:fe:5f:e0:
                    82:60:3c:ec:51:b0:cb:bc:1c:e8:c7:14:e3:6e:e7:
                    9f:a2:30:bd:1c:a6:76:54:bd:49:38:b3:76:7c:da:
                    c7:51:1b:fa:ac:a8:ff:2a:f8:40:1a:ee:02:9b:9f:
                    5c:48:75:73:e7:cc:2f:9d:48:2f:c0:f3:40:0d:5c:
                    9a:ae:25:ca:78:56:e6:35:4e:01:8d:35:3a:7d:61:
                    99:30:ab:13:78:33:4b:0d:d4:17:58:32:8a:e0:90:
                    2a:d0:03:46:97:51:11:58:90:02:9b:09:10:29:36:
                    21:57
                Exponent: 65537 (0x10001)
        X509v3 extensions:
            X509v3 Key Usage: critical
                Certificate Sign, CRL Sign
            X509v3 Basic Constraints: critical
                CA:TRUE, pathlen:0
            X509v3 Subject Key Identifier: 
                1B:97:33:CE:89:A2:F8:3B:DA:31:AD:0A:CC:AA:8E:FC:30:67:96:66
            X509v3 Authority Key Identifier: 
                25:17:41:79:A0:E8:A9:EB:60:E8:91:CD:1A:20:0C:56:D6:58:7C:F3
    Signature Algorithm: sha1WithRSAEncryption
    Signature Value:
        4c:58:20:05:45:51:57:4e:a1:d1:ba:c3:bf:73:01:29:17:cf:
        c5:c2:d5:e4:db:5d:28:76:03:f0:06:24:7a:19:63:45:57:17:
        c5:5a:e6:a8:1b:2f:75:db:04:57:e2:c8:15:5c:c3:d9:2a:c6:
        32:66:b0:8c:3b:14:64:19:de:e6:aa:df:d7:12:c6:02:a5:b1:
        d8:ed:bd:87:1d:30:54:f8:78:e5:f4:13:ba:03:40:d9:17:1f:
        8d:b9:92:49:15:e2:e1:4e:ed:03:87:a4:b0:29:c7:11:de:a5:
        07:c3:0a:76:e6:72:eb:12:c7:96:c1:66:e5:9a:33:ba:a4:56:
        a4:42:50:fd:60:3e:5c:a9:4d:91:42:75:30:82:39:a8:64:18:
        40:86:54:83:9f:63:4b:5c:ac:8f:a0:7c:c7:40:72:0c:d4:61:
        31:59:68:c5:27:7b:63:05:58:64:78:94:4f:21:6d:ca:af:eb:
        02:20:9f:a6:82:5f:4b:8d:8e:80:e2:f4:72:01:20:4a:3d:c8:
        f8:9c:4b:c3:4b:41:c3:a3:59:63:f8:c3:70:aa:fb:25:d5:56:
        2d:e0:9c:27:d0:53:62:fa:cb:25:91:d4:e7:44:9b:89:86:d5:
        1c:46:d1:66:fc:7b:a0:a2:39:e5:44:92:21:9c:65:b7:90:4e:
        78:35:fe:06
-----BEGIN CERTIFICATE-----
MIIDzzCCAregAwIBAgIBAjANBgkqhkiG9w0BAQUFADB0MRMwEQYKCZImiZPyLGQB
GRYDb3JnMRYwFAYKCZImiZPyLGQBGRYGc2ltcGxlMRMwEQYDVQQKDApTaW1wbGUg
SW5jMRcwFQYDVQQLDA5TaW1wbGUgUm9vdCBDQTEXMBUGA1UEAwwOU2ltcGxlIFJv
b3QgQ0EwHhcNMjMxMjExMDYzMTIzWhcNMzMxMjEwMDYzMTIzWjB6MRMwEQYKCZIm
iZPyLGQBGRYDb3JnMRYwFAYKCZImiZPyLGQBGRYGc2ltcGxlMRMwEQYDVQQKDApT
aW1wbGUgSW5jMRowGAYDVQQLDBFTaW1wbGUgU2lnbmluZyBDQTEaMBgGA1UEAwwR
U2ltcGxlIFNpZ25pbmcgQ0EwggEiMA0GCSqGSIb3DQEBAQUAA4IBDwAwggEKAoIB
AQC7odmbVc+6OuxunhwZh5fhu1Fft90fuBAnZ5aGfhCEUf743BBUkUemMwfK8l9l
F6ABOyTvM7HQCw1llp0Fnqj172lMzVD9fkEi18AR6VnXoO67mBn8V7CyJcigX5T1
NfBVOfIXrQOUHXs55+C+5C1sD8+poY5Si/zBAqCSWr+fnBGlYHlpC9GgzIVT0+yV
9lhTbf5f4IJgPOxRsMu8HOjHFONu55+iML0cpnZUvUk4s3Z82sdRG/qsqP8q+EAa
7gKbn1xIdXPnzC+dSC/A80ANXJquJcp4VuY1TgGNNTp9YZkwqxN4M0sN1BdYMorg
kCrQA0aXURFYkAKbCRApNiFXAgMBAAGjZjBkMA4GA1UdDwEB/wQEAwIBBjASBgNV
HRMBAf8ECDAGAQH/AgEAMB0GA1UdDgQWBBQblzPOiaL4O9oxrQrMqo78MGeWZjAf
BgNVHSMEGDAWgBQlF0F5oOip62Dokc0aIAxW1lh88zANBgkqhkiG9w0BAQUFAAOC
AQEATFggBUVRV06h0brDv3MBKRfPxcLV5NtdKHYD8AYkehljRVcXxVrmqBsvddsE
V+LIFVzD2SrGMmawjDsUZBne5qrf1xLGAqWx2O29hx0wVPh45fQTugNA2RcfjbmS
SRXi4U7tA4eksCnHEd6lB8MKduZy6xLHlsFm5ZozuqRWpEJQ/WA+XKlNkUJ1MII5
qGQYQIZUg59jS1ysj6B8x0ByDNRhMVloxSd7YwVYZHiUTyFtyq/rAiCfpoJfS42O
gOL0cgEgSj3I+JxLw0tBw6NZY/jDcKr7JdVWLeCcJ9BTYvrLJZHU50SbiYbVHEbR
Zvx7oKI55USSIZxlt5BOeDX+Bg==
-----END CERTIFICATE-----
Certificate:
    Data:
        Version: 3 (0x2)
        Serial Number: 1 (0x1)
        Signature Algorithm: sha1WithRSAEncryption
        Issuer: DC=org, DC=simple, O=Simple Inc, OU=Simple Root CA, CN=Simple Root CA
        Validity
            Not Before: Dec 11 06:28:50 2023 GMT
            Not After : Dec 10 06:28:50 2033 GMT
        Subject: DC=org, DC=simple, O=Simple Inc, OU=Simple Root CA, CN=Simple Root CA
        Subject Public Key Info:
            Public Key Algorithm: rsaEncryption
                Public-Key: (2048 bit)
                Modulus:
                    00:97:c5:62:99:5f:e4:d9:78:57:9d:1f:7a:87:c8:
                    5d:18:99:92:1c:ac:f0:21:39:83:b2:ce:42:28:a2:
                    d5:84:e9:36:6a:51:6a:61:b2:0f:31:61:c2:5b:3c:
                    b4:6e:61:86:94:d7:1e:9b:45:0e:b7:b9:ff:85:36:
                    ab:ad:5c:37:a3:d1:a7:19:4d:b0:69:48:45:65:06:
                    20:87:a8:dc:31:0f:5f:ee:6b:59:1f:a7:e4:20:bb:
                    37:60:28:9a:2b:34:29:9c:4a:46:54:d9:e7:16:dc:
                    44:27:ca:52:a7:b0:0c:29:93:00:58:8d:94:6b:2d:
                    2d:52:9c:fa:1d:49:00:4b:f8:b2:e2:ed:ba:8a:86:
                    36:a7:56:2d:04:6c:ed:6c:d7:65:10:66:ba:72:4e:
                    7b:1f:97:d4:48:86:7d:8c:68:69:8d:23:95:39:37:
                    80:e9:86:8e:76:0f:02:bd:d9:a4:79:3c:22:e6:00:
                    68:11:51:d2:5b:96:70:3e:43:8f:c1:ed:5b:fd:f5:
                    92:b7:db:94:df:a7:56:38:57:11:49:ba:57:7c:6a:
                    16:79:82:ac:bb:8c:a7:f7:31:fb:21:5b:e2:fd:ae:
                    eb:27:e3:fc:fb:b7:81:8c:20:49:90:1b:94:5d:87:
                    d2:de:c1:79:3d:4f:80:7d:b9:ea:fa:cf:fd:b6:5b:
                    af:c5
                Exponent: 65537 (0x10001)
        X509v3 extensions:
            X509v3 Key Usage: critical
                Certificate Sign, CRL Sign
            X509v3 Basic Constraints: critical
                CA:TRUE
            X509v3 Subject Key Identifier: 
                25:17:41:79:A0:E8:A9:EB:60:E8:91:CD:1A:20:0C:56:D6:58:7C:F3
            X509v3 Authority Key Identifier: 
                25:17:41:79:A0:E8:A9:EB:60:E8:91:CD:1A:20:0C:56:D6:58:7C:F3
    Signature Algorithm: sha1WithRSAEncryption
    Signature Value:
        1e:4d:e1:68:46:3d:94:50:94:c4:21:4c:44:af:58:1e:13:a1:
        6b:d4:c0:38:98:41:ea:ae:d7:22:e4:85:f5:97:87:f0:e1:c8:
        f1:80:d0:8e:ac:86:9c:24:42:92:e9:55:8a:74:df:8d:19:2f:
        a2:f8:1f:bf:c9:b2:0e:6a:db:1c:ac:4e:69:a8:c7:15:bd:cf:
        3a:43:ab:7f:1c:8a:c0:99:6b:a2:73:ee:73:9e:92:98:08:69:
        19:19:95:4d:a1:bc:9c:6e:3f:6d:1c:5f:3f:45:8e:cc:04:32:
        32:64:71:aa:64:77:f0:0b:50:48:78:7d:41:1f:42:d2:e1:bc:
        9d:ea:8e:b8:9b:5c:b7:7b:19:9b:fa:d3:87:39:09:21:1a:5d:
        9f:56:29:65:06:f6:c8:af:eb:db:b6:f7:a9:60:7d:11:ee:8c:
        12:6d:df:9b:d5:52:0c:1b:20:fe:78:4e:7c:3b:5a:10:7b:2d:
        71:25:ca:71:f8:62:ae:2c:51:7a:b5:e5:53:39:d6:4b:82:ee:
        fa:5b:43:a8:c2:00:b2:1a:96:91:55:4f:8b:fa:4e:32:bb:25:
        46:bb:30:ef:b9:7d:bf:f5:7b:ca:c2:71:f5:8a:8c:cd:b1:31:
        31:7d:22:51:e2:3f:e2:39:1f:53:98:00:31:47:29:18:4d:df:
        b7:6d:ec:ac
-----BEGIN CERTIFICATE-----
MIIDxjCCAq6gAwIBAgIBATANBgkqhkiG9w0BAQUFADB0MRMwEQYKCZImiZPyLGQB
GRYDb3JnMRYwFAYKCZImiZPyLGQBGRYGc2ltcGxlMRMwEQYDVQQKDApTaW1wbGUg
SW5jMRcwFQYDVQQLDA5TaW1wbGUgUm9vdCBDQTEXMBUGA1UEAwwOU2ltcGxlIFJv
b3QgQ0EwHhcNMjMxMjExMDYyODUwWhcNMzMxMjEwMDYyODUwWjB0MRMwEQYKCZIm
iZPyLGQBGRYDb3JnMRYwFAYKCZImiZPyLGQBGRYGc2ltcGxlMRMwEQYDVQQKDApT
aW1wbGUgSW5jMRcwFQYDVQQLDA5TaW1wbGUgUm9vdCBDQTEXMBUGA1UEAwwOU2lt
cGxlIFJvb3QgQ0EwggEiMA0GCSqGSIb3DQEBAQUAA4IBDwAwggEKAoIBAQCXxWKZ
X+TZeFedH3qHyF0YmZIcrPAhOYOyzkIootWE6TZqUWphsg8xYcJbPLRuYYaU1x6b
RQ63uf+FNqutXDej0acZTbBpSEVlBiCHqNwxD1/ua1kfp+QguzdgKJorNCmcSkZU
2ecW3EQnylKnsAwpkwBYjZRrLS1SnPodSQBL+LLi7bqKhjanVi0EbO1s12UQZrpy
Tnsfl9RIhn2MaGmNI5U5N4Dpho52DwK92aR5PCLmAGgRUdJblnA+Q4/B7Vv99ZK3
25Tfp1Y4VxFJuld8ahZ5gqy7jKf3MfshW+L9rusn4/z7t4GMIEmQG5Rdh9LewXk9
T4B9uer6z/22W6/FAgMBAAGjYzBhMA4GA1UdDwEB/wQEAwIBBjAPBgNVHRMBAf8E
BTADAQH/MB0GA1UdDgQWBBQlF0F5oOip62Dokc0aIAxW1lh88zAfBgNVHSMEGDAW
gBQlF0F5oOip62Dokc0aIAxW1lh88zANBgkqhkiG9w0BAQUFAAOCAQEAHk3haEY9
lFCUxCFMRK9YHhOha9TAOJhB6q7XIuSF9ZeH8OHI8YDQjqyGnCRCkulVinTfjRkv
ovgfv8myDmrbHKxOaajHFb3POkOrfxyKwJlronPuc56SmAhpGRmVTaG8nG4/bRxf
P0WOzAQyMmRxqmR38AtQSHh9QR9C0uG8neqOuJtct3sZm/rThzkJIRpdn1YpZQb2
yK/r27b3qWB9Ee6MEm3fm9VSDBsg/nhOfDtaEHstcSXKcfhirixRerXlUznWS4Lu
+ltDqMIAshqWkVVPi/pOMrslRrsw77l9v/V7ysJx9YqMzbExMX0iUeI/4jkfU5gA
MUcpGE3ft23srA==
-----END CERTIFICATE-----
