Certificate:
    Data:
        Version: 3 (0x2)
        Serial Number: 1 (0x1)
        Signature Algorithm: sha1WithRSAEncryption
        Issuer: DC=org, DC=simple, O=Simple Inc, OU=Simple Root CA, CN=Simple Root CA
        Validity
            Not Before: Dec 11 06:28:50 2023 GMT
            Not After : Dec 10 06:28:50 2033 GMT
        Subject: DC=org, DC=simple, O=Simple Inc, OU=Simple Root CA, CN=Simple Root CA
        Subject Public Key Info:
            Public Key Algorithm: rsaEncryption
                Public-Key: (2048 bit)
                Modulus:
                    00:97:c5:62:99:5f:e4:d9:78:57:9d:1f:7a:87:c8:
                    5d:18:99:92:1c:ac:f0:21:39:83:b2:ce:42:28:a2:
                    d5:84:e9:36:6a:51:6a:61:b2:0f:31:61:c2:5b:3c:
                    b4:6e:61:86:94:d7:1e:9b:45:0e:b7:b9:ff:85:36:
                    ab:ad:5c:37:a3:d1:a7:19:4d:b0:69:48:45:65:06:
                    20:87:a8:dc:31:0f:5f:ee:6b:59:1f:a7:e4:20:bb:
                    37:60:28:9a:2b:34:29:9c:4a:46:54:d9:e7:16:dc:
                    44:27:ca:52:a7:b0:0c:29:93:00:58:8d:94:6b:2d:
                    2d:52:9c:fa:1d:49:00:4b:f8:b2:e2:ed:ba:8a:86:
                    36:a7:56:2d:04:6c:ed:6c:d7:65:10:66:ba:72:4e:
                    7b:1f:97:d4:48:86:7d:8c:68:69:8d:23:95:39:37:
                    80:e9:86:8e:76:0f:02:bd:d9:a4:79:3c:22:e6:00:
                    68:11:51:d2:5b:96:70:3e:43:8f:c1:ed:5b:fd:f5:
                    92:b7:db:94:df:a7:56:38:57:11:49:ba:57:7c:6a:
                    16:79:82:ac:bb:8c:a7:f7:31:fb:21:5b:e2:fd:ae:
                    eb:27:e3:fc:fb:b7:81:8c:20:49:90:1b:94:5d:87:
                    d2:de:c1:79:3d:4f:80:7d:b9:ea:fa:cf:fd:b6:5b:
                    af:c5
                Exponent: 65537 (0x10001)
        X509v3 extensions:
            X509v3 Key Usage: critical
                Certificate Sign, CRL Sign
            X509v3 Basic Constraints: critical
                CA:TRUE
            X509v3 Subject Key Identifier: 
                25:17:41:79:A0:E8:A9:EB:60:E8:91:CD:1A:20:0C:56:D6:58:7C:F3
            X509v3 Authority Key Identifier: 
                25:17:41:79:A0:E8:A9:EB:60:E8:91:CD:1A:20:0C:56:D6:58:7C:F3
    Signature Algorithm: sha1WithRSAEncryption
    Signature Value:
        1e:4d:e1:68:46:3d:94:50:94:c4:21:4c:44:af:58:1e:13:a1:
        6b:d4:c0:38:98:41:ea:ae:d7:22:e4:85:f5:97:87:f0:e1:c8:
        f1:80:d0:8e:ac:86:9c:24:42:92:e9:55:8a:74:df:8d:19:2f:
        a2:f8:1f:bf:c9:b2:0e:6a:db:1c:ac:4e:69:a8:c7:15:bd:cf:
        3a:43:ab:7f:1c:8a:c0:99:6b:a2:73:ee:73:9e:92:98:08:69:
        19:19:95:4d:a1:bc:9c:6e:3f:6d:1c:5f:3f:45:8e:cc:04:32:
        32:64:71:aa:64:77:f0:0b:50:48:78:7d:41:1f:42:d2:e1:bc:
        9d:ea:8e:b8:9b:5c:b7:7b:19:9b:fa:d3:87:39:09:21:1a:5d:
        9f:56:29:65:06:f6:c8:af:eb:db:b6:f7:a9:60:7d:11:ee:8c:
        12:6d:df:9b:d5:52:0c:1b:20:fe:78:4e:7c:3b:5a:10:7b:2d:
        71:25:ca:71:f8:62:ae:2c:51:7a:b5:e5:53:39:d6:4b:82:ee:
        fa:5b:43:a8:c2:00:b2:1a:96:91:55:4f:8b:fa:4e:32:bb:25:
        46:bb:30:ef:b9:7d:bf:f5:7b:ca:c2:71:f5:8a:8c:cd:b1:31:
        31:7d:22:51:e2:3f:e2:39:1f:53:98:00:31:47:29:18:4d:df:
        b7:6d:ec:ac
-----BEGIN CERTIFICATE-----
MIIDxjCCAq6gAwIBAgIBATANBgkqhkiG9w0BAQUFADB0MRMwEQYKCZImiZPyLGQB
GRYDb3JnMRYwFAYKCZImiZPyLGQBGRYGc2ltcGxlMRMwEQYDVQQKDApTaW1wbGUg
SW5jMRcwFQYDVQQLDA5TaW1wbGUgUm9vdCBDQTEXMBUGA1UEAwwOU2ltcGxlIFJv
b3QgQ0EwHhcNMjMxMjExMDYyODUwWhcNMzMxMjEwMDYyODUwWjB0MRMwEQYKCZIm
iZPyLGQBGRYDb3JnMRYwFAYKCZImiZPyLGQBGRYGc2ltcGxlMRMwEQYDVQQKDApT
aW1wbGUgSW5jMRcwFQYDVQQLDA5TaW1wbGUgUm9vdCBDQTEXMBUGA1UEAwwOU2lt
cGxlIFJvb3QgQ0EwggEiMA0GCSqGSIb3DQEBAQUAA4IBDwAwggEKAoIBAQCXxWKZ
X+TZeFedH3qHyF0YmZIcrPAhOYOyzkIootWE6TZqUWphsg8xYcJbPLRuYYaU1x6b
RQ63uf+FNqutXDej0acZTbBpSEVlBiCHqNwxD1/ua1kfp+QguzdgKJorNCmcSkZU
2ecW3EQnylKnsAwpkwBYjZRrLS1SnPodSQBL+LLi7bqKhjanVi0EbO1s12UQZrpy
Tnsfl9RIhn2MaGmNI5U5N4Dpho52DwK92aR5PCLmAGgRUdJblnA+Q4/B7Vv99ZK3
25Tfp1Y4VxFJuld8ahZ5gqy7jKf3MfshW+L9rusn4/z7t4GMIEmQG5Rdh9LewXk9
T4B9uer6z/22W6/FAgMBAAGjYzBhMA4GA1UdDwEB/wQEAwIBBjAPBgNVHRMBAf8E
BTADAQH/MB0GA1UdDgQWBBQlF0F5oOip62Dokc0aIAxW1lh88zAfBgNVHSMEGDAW
gBQlF0F5oOip62Dokc0aIAxW1lh88zANBgkqhkiG9w0BAQUFAAOCAQEAHk3haEY9
lFCUxCFMRK9YHhOha9TAOJhB6q7XIuSF9ZeH8OHI8YDQjqyGnCRCkulVinTfjRkv
ovgfv8myDmrbHKxOaajHFb3POkOrfxyKwJlronPuc56SmAhpGRmVTaG8nG4/bRxf
P0WOzAQyMmRxqmR38AtQSHh9QR9C0uG8neqOuJtct3sZm/rThzkJIRpdn1YpZQb2
yK/r27b3qWB9Ee6MEm3fm9VSDBsg/nhOfDtaEHstcSXKcfhirixRerXlUznWS4Lu
+ltDqMIAshqWkVVPi/pOMrslRrsw77l9v/V7ysJx9YqMzbExMX0iUeI/4jkfU5gA
MUcpGE3ft23srA==
-----END CERTIFICATE-----
